(lp0
V\u0412\u0441\u0435
p1
aV\u041b\u0438\u0433\u0430 \u0415\u0432\u0440\u043e\u043f\u044b
p2
aV\u041b\u0438\u0433\u0430 \u0427\u0435\u043c\u043f\u0438\u043e\u043d\u043e\u0432
p3
aV\u0427\u0435\u043c\u043f\u0438\u043e\u043d\u0430\u0442 \u0418\u0441\u043f\u0430\u043d\u0438\u0438
p4
aV\u0427\u0435\u043c\u043f\u0438\u043e\u043d\u0430\u0442 \u0422\u0443\u0440\u0446\u0438\u0438
p5
aV\u0427\u0435\u043c\u043f\u0438\u043e\u043d\u0430\u0442 \u0413\u0435\u0440\u043c\u0430\u043d\u0438\u0438
p6
aV\u0427\u0435\u043c\u043f\u0438\u043e\u043d\u0430\u0442 \u0423\u043a\u0440\u0430\u0438\u043d\u044b
p7
aV\u0427\u0435\u043c\u043f\u0438\u043e\u043d\u0430\u0442 \u0411\u0435\u043b\u0430\u0440\u0443\u0441\u0438
p8
aV\u0427\u0435\u043c\u043f\u0438\u043e\u043d\u0430\u0442 \u0411\u0435\u043b\u044c\u0433\u0438\u0438
p9
aV\u0427\u0435\u043c\u043f\u0438\u043e\u043d\u0430\u0442 \u041f\u043e\u0440\u0442\u0443\u0433\u0430\u043b\u0438\u0438
p10
aV\u0427\u0435\u043c\u043f\u0438\u043e\u043d\u0430\u0442 \u0410\u043d\u0433\u043b\u0438\u0438
p11
aV\u0427\u0435\u043c\u043f\u0438\u043e\u043d\u0430\u0442 \u0420\u043e\u0441\u0441\u0438\u0438
p12
aV\u0427\u0435\u043c\u043f\u0438\u043e\u043d\u0430\u0442 \u041a\u0430\u0437\u0430\u0445\u0441\u0442\u0430\u043d\u0430
p13
aV\u0427\u0435\u043c\u043f\u0438\u043e\u043d\u0430\u0442 \u041d\u0438\u0434\u0435\u0440\u043b\u0430\u043d\u0434\u043e\u0432
p14
aV\u0427\u0435\u043c\u043f\u0438\u043e\u043d\u0430\u0442 \u0418\u0442\u0430\u043b\u0438\u0438
p15
aV\u0427\u0435\u043c\u043f\u0438\u043e\u043d\u0430\u0442 \u041f\u043e\u043b\u044c\u0448\u0438
p16
aV\u0427\u0435\u043c\u043f\u0438\u043e\u043d\u0430\u0442 \u0424\u0440\u0430\u043d\u0446\u0438\u0438
p17
aV\u0424\u0443\u0442\u0431\u043e\u043b\u044c\u043d\u044b\u0435 \u043f\u0440\u043e\u0433\u0440\u0430\u043c\u043c\u044b \u0423\u043a\u0440\u0430\u0438\u043d\u044b
p18
aV\u0424\u0443\u0442\u0431\u043e\u043b\u044c\u043d\u044b\u0435 \u043f\u0440\u043e\u0433\u0440\u0430\u043c\u043c\u044b \u0420\u043e\u0441\u0441\u0438\u0438
p19
aV\u0424\u0443\u0442\u0431\u043e\u043b\u044c\u043d\u044b\u0435 \u043f\u0440\u043e\u0433\u0440\u0430\u043c\u043c\u044b \u0418\u0441\u043f\u0430\u043d\u0438\u0438
p20
aV\u0424\u0443\u0442\u0431\u043e\u043b\u044c\u043d\u044b\u0435 \u043f\u0440\u043e\u0433\u0440\u0430\u043c\u043c\u044b \u0424\u0440\u0430\u043d\u0446\u0438\u0438
p21
aV\u0424\u0443\u0442\u0431\u043e\u043b\u044c\u043d\u044b\u0435 \u043f\u0440\u043e\u0433\u0440\u0430\u043c\u043c\u044b \u041f\u043e\u0440\u0442\u0443\u0433\u0430\u043b\u0438\u0438
p22
aV\u0424\u0443\u0442\u0431\u043e\u043b\u044c\u043d\u044b\u0435 \u043f\u0440\u043e\u0433\u0440\u0430\u043c\u043c\u044b \u0413\u0435\u0440\u043c\u0430\u043d\u0438\u0438
p23
aV\u0424\u0443\u0442\u0431\u043e\u043b\u044c\u043d\u044b\u0435 \u043f\u0440\u043e\u0433\u0440\u0430\u043c\u043c\u044b \u0410\u043d\u0433\u043b\u0438\u0438
p24
aV\u0424\u0443\u0442\u0431\u043e\u043b\u044c\u043d\u044b\u0435 \u043f\u0440\u043e\u0433\u0440\u0430\u043c\u043c\u044b \u0418\u0442\u0430\u043b\u0438\u0438
p25
aV\u041a\u0443\u0431\u043e\u043a \u0410\u043d\u0433\u043b\u0438\u0439\u0441\u043a\u043e\u0439 \u041b\u0438\u0433\u0438
p26
aV\u041a\u0443\u0431\u043e\u043a \u0420\u043e\u0441\u0441\u0438\u0438
p27
aV\u0427\u0435\u043c\u043f\u0438\u043e\u043d\u0430\u0442 \u0415\u0432\u0440\u043e\u043f\u044b
p28
aV\u0422\u0435\u043d\u043d\u0438\u0441
p29
aV\u0411\u043e\u043a\u0441
p30
aV\u0427\u0435\u043c\u043f\u0438\u043e\u043d\u0430\u0442 \u0415\u0432\u0440\u043e\u043f\u044b (\u043c\u043e\u043b\u043e\u0434\u0451\u0436\u043a\u0430)
p31
aV\u0422\u043e\u0432\u0430\u0440\u0438\u0449\u0435\u0441\u043a\u0438\u0435 \u043c\u0430\u0442\u0447\u0438
p32
a.